target datalayout = "e-m:e-p270:32:32-p271:32:32-p272:64:64-i64:64-i128:128-f80:128-n8:16:32:64-S128"
target triple = "x86_64-pc-linux-gnu"

%struct.mkgrp_opt_t = type { ptr, i8, i8, i8, i64, ptr, i64 }

@params_g = internal global %struct.mkgrp_opt_t zeroinitializer, align 8
@.str.14 = private unnamed_addr constant [43 x i8] c"Could not close file access property list\0A\00", align 1

; Function Attrs: nounwind uwtable
define internal void @leave(i32 noundef %0) #0 {
  %2 = alloca i32, align 4
  %3 = alloca i64, align 8
  store i32 %0, ptr %2, align 4
  %4 = load ptr, ptr @params_g, align 8
  %5 = icmp ne ptr %4, null
  br i1 %5, label %6, label %8

6:                                                ; preds = %1
  %7 = load ptr, ptr @params_g, align 8
  call void @free(ptr noundef %7) #7
  br label %8

8:                                                ; preds = %6, %1
  %9 = load i64, ptr getelementptr inbounds (%struct.mkgrp_opt_t, ptr @params_g, i32 0, i32 4), align 8
  %10 = icmp ne i64 %9, 0
  br i1 %10, label %11, label %26

11:                                               ; preds = %8
  store i64 0, ptr %3, align 8
  br label %12

12:                                               ; preds = %21, %11
  %13 = load i64, ptr %3, align 8
  %14 = load i64, ptr getelementptr inbounds (%struct.mkgrp_opt_t, ptr @params_g, i32 0, i32 4), align 8
  %15 = icmp ult i64 %13, %14
  br i1 %15, label %16, label %24

16:                                               ; preds = %12
  %17 = load ptr, ptr getelementptr inbounds (%struct.mkgrp_opt_t, ptr @params_g, i32 0, i32 5), align 8
  %18 = load i64, ptr %3, align 8
  %19 = getelementptr inbounds ptr, ptr %17, i64 %18
  %20 = load ptr, ptr %19, align 8
  call void @free(ptr noundef %20) #7
  br label %21

21:                                               ; preds = %16
  %22 = load i64, ptr %3, align 8
  %23 = add i64 %22, 1
  store i64 %23, ptr %3, align 8
  br label %12

24:                                               ; preds = %12
  %25 = load ptr, ptr getelementptr inbounds (%struct.mkgrp_opt_t, ptr @params_g, i32 0, i32 5), align 8
  call void @free(ptr noundef %25) #7
  br label %26

26:                                               ; preds = %24, %8
  %27 = load i64, ptr getelementptr inbounds (%struct.mkgrp_opt_t, ptr @params_g, i32 0, i32 6), align 8
  %28 = icmp ne i64 -1, %27
  br i1 %28, label %29, label %38

29:                                               ; preds = %26
  %30 = load i64, ptr getelementptr inbounds (%struct.mkgrp_opt_t, ptr @params_g, i32 0, i32 6), align 8
  %31 = icmp ne i64 0, %30
  br i1 %31, label %32, label %38

32:                                               ; preds = %29
  %33 = load i64, ptr getelementptr inbounds (%struct.mkgrp_opt_t, ptr @params_g, i32 0, i32 6), align 8
  %34 = call i32 @H5Pclose(i64 noundef %33)
  %35 = icmp slt i32 %34, 0
  br i1 %35, label %36, label %37

36:                                               ; preds = %32
  call void (ptr, ...) @error_msg(ptr noundef @.str.14)
  br label %37

37:                                               ; preds = %36, %32
  br label %38

38:                                               ; preds = %37, %29, %26
  call void @h5tools_close()
  %39 = load i32, ptr %2, align 4
  call void @exit(i32 noundef %39) #8
  unreachable
}