; Function Attrs: noreturn nounwind uwtable
define internal fastcc void @leave(i32 noundef %0) unnamed_addr #0 {
  %2 = load ptr, ptr @params_g, align 8
  %.not = icmp eq ptr %2, null
  br i1 %.not, label %4, label %3

3:                                                ; preds = %1
  tail call void @free(ptr noundef nonnull %2) #12
  br label %4

4:                                                ; preds = %3, %1
  %5 = load i64, ptr getelementptr inbounds (i8, ptr @params_g, i64 16), align 8
  %.not7 = icmp eq i64 %5, 0
  br i1 %.not7, label %13, label %.lr.ph.preheader

.lr.ph.preheader:                                 ; preds = %4
  %6 = load ptr, ptr getelementptr inbounds (i8, ptr @params_g, i64 24), align 8
  %7 = load i64, ptr getelementptr inbounds (i8, ptr @params_g, i64 16), align 8
  br label %.lr.ph

.lr.ph:                                           ; preds = %.lr.ph.preheader, %.lr.ph
  %.08 = phi i64 [ %10, %.lr.ph ], [ 0, %.lr.ph.preheader ]
  %8 = getelementptr inbounds ptr, ptr %6, i64 %.08
  %9 = load ptr, ptr %8, align 8
  tail call void @free(ptr noundef %9) #12
  %10 = add nuw i64 %.08, 1
  %11 = icmp ult i64 %10, %7
  br i1 %11, label %.lr.ph, label %._crit_edge

._crit_edge:                                      ; preds = %.lr.ph
  %12 = load ptr, ptr getelementptr inbounds (i8, ptr @params_g, i64 24), align 8
  tail call void @free(ptr noundef %12) #12
  br label %13

13:                                               ; preds = %._crit_edge, %4
  %14 = load i64, ptr getelementptr inbounds (i8, ptr @params_g, i64 32), align 8
  %15 = add i64 %14, -1
  %or.cond = icmp ult i64 %15, -2
  br i1 %or.cond, label %16, label %20

16:                                               ; preds = %13
  %17 = tail call i32 @H5Pclose(i64 noundef %14) #12
  %18 = icmp slt i32 %17, 0
  br i1 %18, label %19, label %20

19:                                               ; preds = %16
  tail call void (ptr, ...) @error_msg(ptr noundef nonnull @.str.14) #12
  br label %20

20:                                               ; preds = %16, %19, %13
  tail call void @h5tools_close() #12
  tail call void @exit(i32 noundef %0) #15
  unreachable
}